target datalayout = "e-m:e-p270:32:32-p271:32:32-p272:64:64-i64:64-i128:128-f80:128-n8:16:32:64-S128"
target triple = "x86_64-pc-linux-gnu"

; Function Attrs: mustprogress nounwind uwtable
define dso_local noundef zeroext i1 @_ZN4llvm3omp31isValidTraitSelectorForTraitSetENS0_13TraitSelectorENS0_8TraitSetERbS3_(i32 noundef %0, i32 noundef %1, ptr noundef nonnull align 1 dereferenceable(1) %2, ptr noundef nonnull align 1 dereferenceable(1) %3) #0 {
  %5 = alloca i1, align 1
  %6 = alloca i32, align 4
  %7 = alloca i32, align 4
  %8 = alloca ptr, align 8
  %9 = alloca ptr, align 8
  store i32 %0, ptr %6, align 4
  store i32 %1, ptr %7, align 4
  store ptr %2, ptr %8, align 8
  store ptr %3, ptr %9, align 8
  %10 = load i32, ptr %7, align 4
  %11 = icmp ne i32 %10, 1
  br i1 %11, label %12, label %15

12:                                               ; preds = %4
  %13 = load i32, ptr %7, align 4
  %14 = icmp ne i32 %13, 2
  br label %15

15:                                               ; preds = %12, %4
  %16 = phi i1 [ false, %4 ], [ %14, %12 ]
  %17 = load ptr, ptr %8, align 8
  %18 = zext i1 %16 to i8
  store i8 %18, ptr %17, align 1
  %19 = load i32, ptr %6, align 4
  switch i32 %19, label %92 [
    i32 0, label %20
    i32 1, label %24
    i32 2, label %28
    i32 3, label %32
    i32 4, label %36
    i32 5, label %40
    i32 6, label %44
    i32 7, label %48
    i32 8, label %52
    i32 9, label %56
    i32 10, label %60
    i32 11, label %64
    i32 12, label %68
    i32 13, label %72
    i32 14, label %76
    i32 15, label %80
    i32 16, label %84
    i32 17, label %88
  ]

20:                                               ; preds = %15
  %21 = load ptr, ptr %9, align 8
  store i8 0, ptr %21, align 1
  %22 = load i32, ptr %7, align 4
  %23 = icmp eq i32 %22, 0
  store i1 %23, ptr %5, align 1
  br label %93

24:                                               ; preds = %15
  %25 = load ptr, ptr %9, align 8
  store i8 0, ptr %25, align 1
  %26 = load i32, ptr %7, align 4
  %27 = icmp eq i32 %26, 1
  store i1 %27, ptr %5, align 1
  br label %93

28:                                               ; preds = %15
  %29 = load ptr, ptr %9, align 8
  store i8 0, ptr %29, align 1
  %30 = load i32, ptr %7, align 4
  %31 = icmp eq i32 %30, 1
  store i1 %31, ptr %5, align 1
  br label %93

32:                                               ; preds = %15
  %33 = load ptr, ptr %9, align 8
  store i8 0, ptr %33, align 1
  %34 = load i32, ptr %7, align 4
  %35 = icmp eq i32 %34, 1
  store i1 %35, ptr %5, align 1
  br label %93

36:                                               ; preds = %15
  %37 = load ptr, ptr %9, align 8
  store i8 0, ptr %37, align 1
  %38 = load i32, ptr %7, align 4
  %39 = icmp eq i32 %38, 1
  store i1 %39, ptr %5, align 1
  br label %93

40:                                               ; preds = %15
  %41 = load ptr, ptr %9, align 8
  store i8 0, ptr %41, align 1
  %42 = load i32, ptr %7, align 4
  %43 = icmp eq i32 %42, 1
  store i1 %43, ptr %5, align 1
  br label %93

44:                                               ; preds = %15
  %45 = load ptr, ptr %9, align 8
  store i8 1, ptr %45, align 1
  %46 = load i32, ptr %7, align 4
  %47 = icmp eq i32 %46, 2
  store i1 %47, ptr %5, align 1
  br label %93

48:                                               ; preds = %15
  %49 = load ptr, ptr %9, align 8
  store i8 1, ptr %49, align 1
  %50 = load i32, ptr %7, align 4
  %51 = icmp eq i32 %50, 2
  store i1 %51, ptr %5, align 1
  br label %93

52:                                               ; preds = %15
  %53 = load ptr, ptr %9, align 8
  store i8 1, ptr %53, align 1
  %54 = load i32, ptr %7, align 4
  %55 = icmp eq i32 %54, 3
  store i1 %55, ptr %5, align 1
  br label %93

56:                                               ; preds = %15
  %57 = load ptr, ptr %9, align 8
  store i8 1, ptr %57, align 1
  %58 = load i32, ptr %7, align 4
  %59 = icmp eq i32 %58, 3
  store i1 %59, ptr %5, align 1
  br label %93

60:                                               ; preds = %15
  %61 = load ptr, ptr %9, align 8
  store i8 1, ptr %61, align 1
  %62 = load i32, ptr %7, align 4
  %63 = icmp eq i32 %62, 4
  store i1 %63, ptr %5, align 1
  br label %93

64:                                               ; preds = %15
  %65 = load ptr, ptr %9, align 8
  store i8 0, ptr %65, align 1
  %66 = load i32, ptr %7, align 4
  %67 = icmp eq i32 %66, 1
  store i1 %67, ptr %5, align 1
  br label %93

68:                                               ; preds = %15
  %69 = load ptr, ptr %9, align 8
  store i8 1, ptr %69, align 1
  %70 = load i32, ptr %7, align 4
  %71 = icmp eq i32 %70, 2
  store i1 %71, ptr %5, align 1
  br label %93

72:                                               ; preds = %15
  %73 = load ptr, ptr %9, align 8
  store i8 0, ptr %73, align 1
  %74 = load i32, ptr %7, align 4
  %75 = icmp eq i32 %74, 3
  store i1 %75, ptr %5, align 1
  br label %93

76:                                               ; preds = %15
  %77 = load ptr, ptr %9, align 8
  store i8 0, ptr %77, align 1
  %78 = load i32, ptr %7, align 4
  %79 = icmp eq i32 %78, 3
  store i1 %79, ptr %5, align 1
  br label %93

80:                                               ; preds = %15
  %81 = load ptr, ptr %9, align 8
  store i8 0, ptr %81, align 1
  %82 = load i32, ptr %7, align 4
  %83 = icmp eq i32 %82, 3
  store i1 %83, ptr %5, align 1
  br label %93

84:                                               ; preds = %15
  %85 = load ptr, ptr %9, align 8
  store i8 0, ptr %85, align 1
  %86 = load i32, ptr %7, align 4
  %87 = icmp eq i32 %86, 3
  store i1 %87, ptr %5, align 1
  br label %93

88:                                               ; preds = %15
  %89 = load ptr, ptr %9, align 8
  store i8 0, ptr %89, align 1
  %90 = load i32, ptr %7, align 4
  %91 = icmp eq i32 %90, 3
  store i1 %91, ptr %5, align 1
  br label %93

92:                                               ; preds = %15
  unreachable

93:                                               ; preds = %88, %84, %80, %76, %72, %68, %64, %60, %56, %52, %48, %44, %40, %36, %32, %28, %24, %20
  %94 = load i1, ptr %5, align 1
  ret i1 %94
}