; Function Attrs: mustprogress nofree norecurse nosync nounwind willreturn memory(argmem: write) uwtable
define dso_local noundef zeroext i1 @_ZN4llvm3omp31isValidTraitSelectorForTraitSetENS0_13TraitSelectorENS0_8TraitSetERbS3_(i32 noundef %0, i32 noundef %1, ptr nocapture noundef nonnull writeonly align 1 dereferenceable(1) %2, ptr nocapture noundef nonnull writeonly align 1 dereferenceable(1) %3) local_unnamed_addr #5 {
switch.lookup:
  %4 = add i32 %1, -3
  %5 = icmp ult i32 %4, -2
  %6 = zext i1 %5 to i8
  store i8 %6, ptr %2, align 1
  %7 = sext i32 %0 to i64
  %switch.gep = getelementptr inbounds [18 x i8], ptr @switch.table._ZN4llvm3omp31isValidTraitSelectorForTraitSetENS0_13TraitSelectorENS0_8TraitSetERbS3_, i64 0, i64 %7
  %switch.load = load i8, ptr %switch.gep, align 1
  %8 = sext i32 %0 to i64
  %switch.gep41 = getelementptr inbounds [18 x i32], ptr @switch.table._ZN4llvm3omp31isValidTraitSelectorForTraitSetENS0_13TraitSelectorENS0_8TraitSetERbS3_.8, i64 0, i64 %8
  %switch.load42 = load i32, ptr %switch.gep41, align 4
  store i8 %switch.load, ptr %3, align 1
  %9 = icmp eq i32 %1, %switch.load42
  ret i1 %9
}